target datalayout = "e-m:e-p270:32:32-p271:32:32-p272:64:64-i64:64-i128:128-f80:128-n8:16:32:64-S128"
target triple = "x86_64-pc-linux-gnu"

%class.Handle = type { ptr }
%class.ThreadShadow = type <{ ptr, ptr, ptr, i32, [4 x i8] }>
%class.JavaCallArguments = type { [9 x i64], [9 x i8], ptr, ptr, i32, i32, i8, %class.Handle }
%class.instanceHandle = type { %class.Handle }
%class.JavaValue = type { i8, %"union.JavaValue::JavaCallValue" }
%"union.JavaValue::JavaCallValue" = type { double }

@_ZN6Symbol11_vm_symbolsE = external global [0 x ptr], align 8

; Function Attrs: mustprogress nounwind uwtable
define linkonce_odr hidden noundef ptr @_ZNK6Handle9raw_valueEv(ptr noundef nonnull align 8 dereferenceable(8) %0) #1 comdat align 2 {
  %2 = alloca ptr, align 8
  store ptr %0, ptr %2, align 8
  %3 = load ptr, ptr %2, align 8
  %4 = getelementptr inbounds %class.Handle, ptr %3, i32 0, i32 0
  %5 = load ptr, ptr %4, align 8
  ret ptr %5
}

; Function Attrs: mustprogress nounwind uwtable
define linkonce_odr hidden void @_ZN8JNITypes7put_objERK6HandlePlRi(ptr noundef nonnull align 8 dereferenceable(8) %0, ptr noundef %1, ptr noundef nonnull align 4 dereferenceable(4) %2) #1 comdat align 2 {
  %4 = alloca ptr, align 8
  %5 = alloca ptr, align 8
  %6 = alloca ptr, align 8
  store ptr %0, ptr %4, align 8
  store ptr %1, ptr %5, align 8
  store ptr %2, ptr %6, align 8
  %7 = load ptr, ptr %4, align 8
  %8 = call noundef ptr @_ZNK6Handle9raw_valueEv(ptr noundef nonnull align 8 dereferenceable(8) %7)
  %9 = ptrtoint ptr %8 to i64
  %10 = load ptr, ptr %5, align 8
  %11 = load ptr, ptr %6, align 8
  %12 = load i32, ptr %11, align 4
  %13 = add nsw i32 %12, 1
  store i32 %13, ptr %11, align 4
  %14 = sext i32 %12 to i64
  %15 = getelementptr inbounds i64, ptr %10, i64 %14
  store i64 %9, ptr %15, align 8
  ret void
}

; Function Attrs: mustprogress nounwind uwtable
define linkonce_odr hidden noundef ptr @_ZN9vmSymbols23object_initializer_nameEv() #1 comdat align 2 {
  %1 = load ptr, ptr getelementptr inbounds ([0 x ptr], ptr @_ZN6Symbol11_vm_symbolsE, i64 0, i64 382), align 8
  ret ptr %1
}

; Function Attrs: mustprogress nounwind uwtable
define linkonce_odr hidden void @_ZN17JavaCallArguments12set_receiverE6Handle(ptr noundef nonnull align 8 dereferenceable(128) %0, ptr %1) #1 comdat align 2 {
  %3 = alloca %class.Handle, align 8
  %4 = alloca ptr, align 8
  %5 = alloca i32, align 4
  %6 = getelementptr inbounds %class.Handle, ptr %3, i32 0, i32 0
  store ptr %1, ptr %6, align 8
  store ptr %0, ptr %4, align 8
  %7 = load ptr, ptr %4, align 8
  %8 = getelementptr inbounds %class.JavaCallArguments, ptr %7, i32 0, i32 6
  store i8 1, ptr %8, align 8
  %9 = getelementptr inbounds %class.JavaCallArguments, ptr %7, i32 0, i32 3
  %10 = load ptr, ptr %9, align 8
  %11 = getelementptr inbounds i8, ptr %10, i32 -1
  store ptr %11, ptr %9, align 8
  %12 = getelementptr inbounds %class.JavaCallArguments, ptr %7, i32 0, i32 2
  %13 = load ptr, ptr %12, align 8
  %14 = getelementptr inbounds i64, ptr %13, i32 -1
  store ptr %14, ptr %12, align 8
  %15 = getelementptr inbounds %class.JavaCallArguments, ptr %7, i32 0, i32 4
  %16 = load i32, ptr %15, align 8
  %17 = add nsw i32 %16, 1
  store i32 %17, ptr %15, align 8
  %18 = getelementptr inbounds %class.JavaCallArguments, ptr %7, i32 0, i32 3
  %19 = load ptr, ptr %18, align 8
  %20 = getelementptr inbounds i8, ptr %19, i64 0
  store i8 2, ptr %20, align 1
  store i32 0, ptr %5, align 4
  %21 = getelementptr inbounds %class.JavaCallArguments, ptr %7, i32 0, i32 2
  %22 = load ptr, ptr %21, align 8
  call void @_ZN8JNITypes7put_objERK6HandlePlRi(ptr noundef nonnull align 8 dereferenceable(8) %3, ptr noundef %22, ptr noundef nonnull align 4 dereferenceable(4) %5)
  ret void
}

; Function Attrs: mustprogress nounwind uwtable
define linkonce_odr hidden void @_ZN9JavaValueC2E9BasicType(ptr noundef nonnull align 8 dereferenceable(16) %0, i8 noundef zeroext %1) unnamed_addr #1 comdat align 2 {
  %3 = alloca ptr, align 8
  %4 = alloca i8, align 1
  store ptr %0, ptr %3, align 8
  store i8 %1, ptr %4, align 1
  %5 = load ptr, ptr %3, align 8
  %6 = load i8, ptr %4, align 1
  %7 = getelementptr inbounds %class.JavaValue, ptr %5, i32 0, i32 0
  store i8 %6, ptr %7, align 8
  ret void
}

; Function Attrs: mustprogress nounwind uwtable
define linkonce_odr hidden void @_ZN6HandleC2Ev(ptr noundef nonnull align 8 dereferenceable(8) %0) unnamed_addr #1 comdat align 2 {
  %2 = alloca ptr, align 8
  store ptr %0, ptr %2, align 8
  %3 = load ptr, ptr %2, align 8
  %4 = getelementptr inbounds %class.Handle, ptr %3, i32 0, i32 0
  store ptr null, ptr %4, align 8
  ret void
}

; Function Attrs: mustprogress nounwind uwtable
define linkonce_odr hidden noundef zeroext i1 @_ZNK12ThreadShadow21has_pending_exceptionEv(ptr noundef nonnull align 8 dereferenceable(28) %0) #1 comdat align 2 {
  %2 = alloca ptr, align 8
  store ptr %0, ptr %2, align 8
  %3 = load ptr, ptr %2, align 8
  %4 = getelementptr inbounds %class.ThreadShadow, ptr %3, i32 0, i32 1
  %5 = load ptr, ptr %4, align 8
  %6 = icmp ne ptr %5, null
  ret i1 %6
}

; Function Attrs: mustprogress nounwind uwtable
define hidden ptr @_ZN9JavaCalls22construct_new_instanceEP13InstanceKlassP6SymbolP17JavaCallArgumentsP10JavaThread(ptr noundef %0, ptr noundef %1, ptr noundef %2, ptr noundef %3) #1 align 2 {
  %5 = alloca %class.Handle, align 8
  %6 = alloca ptr, align 8
  %7 = alloca ptr, align 8
  %8 = alloca ptr, align 8
  %9 = alloca ptr, align 8
  %10 = alloca %class.Handle, align 8
  %11 = alloca %class.instanceHandle, align 8
  %12 = alloca %class.JavaValue, align 8
  %13 = alloca %class.Handle, align 8
  store ptr %0, ptr %6, align 8
  store ptr %1, ptr %7, align 8
  store ptr %2, ptr %8, align 8
  store ptr %3, ptr %9, align 8
  %14 = load ptr, ptr %6, align 8
  %15 = load ptr, ptr %9, align 8
  %16 = load ptr, ptr %14, align 8
  %17 = getelementptr inbounds ptr, ptr %16, i64 22
  %18 = load ptr, ptr %17, align 8
  call void %18(ptr noundef nonnull align 8 dereferenceable(464) %14, ptr noundef %15)
  %19 = load ptr, ptr %9, align 8
  %20 = call noundef zeroext i1 @_ZNK12ThreadShadow21has_pending_exceptionEv(ptr noundef nonnull align 8 dereferenceable(28) %19)
  br i1 %20, label %21, label %22

21:                                               ; preds = %4
  call void @_ZN6HandleC2Ev(ptr noundef nonnull align 8 dereferenceable(8) %5)
  br label %44

22:                                               ; preds = %4
  %23 = load ptr, ptr %6, align 8
  %24 = load ptr, ptr %9, align 8
  %25 = call ptr @_ZN13InstanceKlass24allocate_instance_handleEP10JavaThread(ptr noundef nonnull align 8 dereferenceable(464) %23, ptr noundef %24)
  %26 = getelementptr inbounds %class.instanceHandle, ptr %11, i32 0, i32 0
  %27 = getelementptr inbounds %class.Handle, ptr %26, i32 0, i32 0
  store ptr %25, ptr %27, align 8
  call void @llvm.memcpy.p0.p0.i64(ptr align 8 %10, ptr align 8 %11, i64 8, i1 false)
  %28 = load ptr, ptr %9, align 8
  %29 = call noundef zeroext i1 @_ZNK12ThreadShadow21has_pending_exceptionEv(ptr noundef nonnull align 8 dereferenceable(28) %28)
  br i1 %29, label %30, label %31

30:                                               ; preds = %22
  call void @_ZN6HandleC2Ev(ptr noundef nonnull align 8 dereferenceable(8) %5)
  br label %44

31:                                               ; preds = %22
  call void @_ZN9JavaValueC2E9BasicType(ptr noundef nonnull align 8 dereferenceable(16) %12, i8 noundef zeroext 14)
  %32 = load ptr, ptr %8, align 8
  call void @llvm.memcpy.p0.p0.i64(ptr align 8 %13, ptr align 8 %10, i64 8, i1 false)
  %33 = getelementptr inbounds %class.Handle, ptr %13, i32 0, i32 0
  %34 = load ptr, ptr %33, align 8
  call void @_ZN17JavaCallArguments12set_receiverE6Handle(ptr noundef nonnull align 8 dereferenceable(128) %32, ptr %34)
  %35 = load ptr, ptr %6, align 8
  %36 = call noundef ptr @_ZN9vmSymbols23object_initializer_nameEv()
  %37 = load ptr, ptr %7, align 8
  %38 = load ptr, ptr %8, align 8
  %39 = load ptr, ptr %9, align 8
  call void @_ZN9JavaCalls12call_specialEP9JavaValueP5KlassP6SymbolS5_P17JavaCallArgumentsP10JavaThread(ptr noundef %12, ptr noundef %35, ptr noundef %36, ptr noundef %37, ptr noundef %38, ptr noundef %39)
  %40 = load ptr, ptr %9, align 8
  %41 = call noundef zeroext i1 @_ZNK12ThreadShadow21has_pending_exceptionEv(ptr noundef nonnull align 8 dereferenceable(28) %40)
  br i1 %41, label %42, label %43

42:                                               ; preds = %31
  call void @_ZN6HandleC2Ev(ptr noundef nonnull align 8 dereferenceable(8) %5)
  br label %44

43:                                               ; preds = %31
  call void @llvm.memcpy.p0.p0.i64(ptr align 8 %5, ptr align 8 %10, i64 8, i1 false)
  br label %44

44:                                               ; preds = %43, %42, %30, %21
  %45 = getelementptr inbounds %class.Handle, ptr %5, i32 0, i32 0
  %46 = load ptr, ptr %45, align 8
  ret ptr %46
}