; Function Attrs: mustprogress nounwind uwtable
define hidden ptr @_ZN9JavaCalls22construct_new_instanceEP13InstanceKlassP6SymbolP17JavaCallArgumentsP10JavaThread(ptr noundef %0, ptr noundef %1, ptr noundef %2, ptr noundef %3) local_unnamed_addr #0 align 2 {
  %5 = alloca %class.JavaValue, align 8
  %6 = load ptr, ptr %0, align 8
  %7 = getelementptr inbounds i8, ptr %6, i64 176
  %8 = load ptr, ptr %7, align 8
  tail call void %8(ptr noundef nonnull align 8 dereferenceable(464) %0, ptr noundef %3) #8
  %9 = getelementptr inbounds i8, ptr %3, i64 8
  %10 = load ptr, ptr %9, align 8
  %.not = icmp eq ptr %10, null
  br i1 %.not, label %11, label %29

11:                                               ; preds = %4
  %12 = tail call ptr @_ZN13InstanceKlass24allocate_instance_handleEP10JavaThread(ptr noundef nonnull align 8 dereferenceable(464) %0, ptr noundef nonnull %3) #8
  %13 = load ptr, ptr %9, align 8
  %.not14 = icmp eq ptr %13, null
  br i1 %.not14, label %14, label %29

14:                                               ; preds = %11
  store i8 14, ptr %5, align 8
  %15 = getelementptr inbounds i8, ptr %2, i64 112
  store i8 1, ptr %15, align 8
  %16 = getelementptr inbounds i8, ptr %2, i64 96
  %17 = load ptr, ptr %16, align 8
  %18 = getelementptr inbounds i8, ptr %17, i64 -1
  store ptr %18, ptr %16, align 8
  %19 = getelementptr inbounds i8, ptr %2, i64 88
  %20 = load ptr, ptr %19, align 8
  %21 = getelementptr inbounds i8, ptr %20, i64 -8
  store ptr %21, ptr %19, align 8
  %22 = getelementptr inbounds i8, ptr %2, i64 104
  %23 = load i32, ptr %22, align 8
  %24 = add nsw i32 %23, 1
  store i32 %24, ptr %22, align 8
  store i8 2, ptr %18, align 1
  %25 = load ptr, ptr %19, align 8
  %26 = ptrtoint ptr %12 to i64
  store i64 %26, ptr %25, align 8
  %27 = load ptr, ptr getelementptr inbounds (i8, ptr @_ZN6Symbol11_vm_symbolsE, i64 3056), align 8
  call void @_ZN9JavaCalls12call_specialEP9JavaValueP5KlassP6SymbolS5_P17JavaCallArgumentsP10JavaThread(ptr noundef nonnull %5, ptr noundef nonnull %0, ptr noundef %27, ptr noundef %1, ptr noundef nonnull %2, ptr noundef nonnull %3)
  %28 = load ptr, ptr %9, align 8
  %.not15 = icmp eq ptr %28, null
  %spec.select = select i1 %.not15, ptr %12, ptr null
  br label %29

29:                                               ; preds = %14, %11, %4
  %.sroa.0.0 = phi ptr [ null, %4 ], [ null, %11 ], [ %spec.select, %14 ]
  ret ptr %.sroa.0.0
}